target datalayout = "e-m:e-p270:32:32-p271:32:32-p272:64:64-i64:64-i128:128-f80:128-n8:16:32:64-S128"
target triple = "x86_64-pc-linux-gnu"

%struct._object = type { %union.anon.41, ptr }
%union.anon.41 = type { i64 }
%struct.PyVarObject = type { %struct._object, i64 }
%struct._typeobject = type { %struct.PyVarObject, ptr, i64, i64, ptr, i64, ptr, ptr, ptr, ptr, ptr, ptr, ptr, ptr, ptr, ptr, ptr, ptr, ptr, i64, ptr, ptr, ptr, ptr, i64, ptr, ptr, ptr, ptr, ptr, ptr, ptr, ptr, ptr, i64, ptr, ptr, ptr, ptr, ptr, ptr, ptr, ptr, ptr, ptr, ptr, i32, ptr, ptr, i8, i16 }
%struct.anon.42 = type { i32, i32 }

@PyExc_TypeError = external global ptr, align 8
@_Py_NoneStruct = external global %struct._object, align 8
@.str.283 = private unnamed_addr constant [32 x i8] c"must be str or None, not %.100s\00", align 1

; Function Attrs: inlinehint nounwind uwtable
define internal i32 @PyType_HasFeature(ptr noundef %0, i64 noundef %1) #2 {
  %3 = alloca ptr, align 8
  %4 = alloca i64, align 8
  %5 = alloca i64, align 8
  store ptr %0, ptr %3, align 8, !tbaa !196
  store i64 %1, ptr %4, align 8, !tbaa !185
  call void @llvm.lifetime.start.p0(i64 8, ptr %5) #12
  %6 = load ptr, ptr %3, align 8, !tbaa !196
  %7 = getelementptr inbounds nuw %struct._typeobject, ptr %6, i32 0, i32 19
  %8 = load i64, ptr %7, align 8, !tbaa !197
  store i64 %8, ptr %5, align 8, !tbaa !185
  %9 = load i64, ptr %5, align 8, !tbaa !185
  %10 = load i64, ptr %4, align 8, !tbaa !185
  %11 = and i64 %9, %10
  %12 = icmp ne i64 %11, 0
  %13 = zext i1 %12 to i32
  call void @llvm.lifetime.end.p0(i64 8, ptr %5) #12
  ret i32 %13
}

; Function Attrs: inlinehint nounwind uwtable
define internal ptr @_Py_TYPE(ptr noundef %0) #2 {
  %2 = alloca ptr, align 8
  store ptr %0, ptr %2, align 8, !tbaa !4
  %3 = load ptr, ptr %2, align 8, !tbaa !4
  %4 = getelementptr inbounds nuw %struct._object, ptr %3, i32 0, i32 1
  %5 = load ptr, ptr %4, align 8, !tbaa !202
  ret ptr %5
}

; Function Attrs: alwaysinline nounwind uwtable
define internal i32 @_Py_IsImmortal(ptr noundef %0) #9 {
  %2 = alloca ptr, align 8
  store ptr %0, ptr %2, align 8, !tbaa !4
  %3 = load ptr, ptr %2, align 8, !tbaa !4
  %4 = getelementptr inbounds nuw %struct._object, ptr %3, i32 0, i32 0
  %5 = getelementptr inbounds nuw %struct.anon.42, ptr %4, i32 0, i32 0
  %6 = load i32, ptr %5, align 8, !tbaa !191
  %7 = icmp slt i32 %6, 0
  %8 = zext i1 %7 to i32
  ret i32 %8
}

; Function Attrs: inlinehint nounwind uwtable
define internal i64 @Py_SIZE(ptr noundef %0) #2 {
  %2 = alloca ptr, align 8
  store ptr %0, ptr %2, align 8, !tbaa !4
  %3 = load ptr, ptr %2, align 8, !tbaa !4
  %4 = getelementptr inbounds nuw %struct.PyVarObject, ptr %3, i32 0, i32 1
  %5 = load i64, ptr %4, align 8, !tbaa !499
  ret i64 %5
}

; Function Attrs: nounwind uwtable
define internal ptr @unicode_split_impl(ptr noundef %0, ptr noundef %1, i64 noundef %2) #0 {
  %4 = alloca ptr, align 8
  %5 = alloca ptr, align 8
  %6 = alloca ptr, align 8
  %7 = alloca i64, align 8
  store ptr %0, ptr %5, align 8, !tbaa !4
  store ptr %1, ptr %6, align 8, !tbaa !4
  store i64 %2, ptr %7, align 8, !tbaa !185
  %8 = load ptr, ptr %6, align 8, !tbaa !4
  %9 = icmp eq ptr %8, @_Py_NoneStruct
  br i1 %9, label %10, label %14

10:                                               ; preds = %3
  %11 = load ptr, ptr %5, align 8, !tbaa !4
  %12 = load i64, ptr %7, align 8, !tbaa !185
  %13 = call ptr @split(ptr noundef %11, ptr noundef null, i64 noundef %12)
  store ptr %13, ptr %4, align 8
  br label %31

14:                                               ; preds = %3
  %15 = load ptr, ptr %6, align 8, !tbaa !4
  %16 = call ptr @_Py_TYPE(ptr noundef %15)
  %17 = call i32 @PyType_HasFeature(ptr noundef %16, i64 noundef 268435456)
  %18 = icmp ne i32 %17, 0
  br i1 %18, label %19, label %24

19:                                               ; preds = %14
  %20 = load ptr, ptr %5, align 8, !tbaa !4
  %21 = load ptr, ptr %6, align 8, !tbaa !4
  %22 = load i64, ptr %7, align 8, !tbaa !185
  %23 = call ptr @split(ptr noundef %20, ptr noundef %21, i64 noundef %22)
  store ptr %23, ptr %4, align 8
  br label %31

24:                                               ; preds = %14
  %25 = load ptr, ptr @PyExc_TypeError, align 8, !tbaa !4
  %26 = load ptr, ptr %6, align 8, !tbaa !4
  %27 = call ptr @_Py_TYPE(ptr noundef %26)
  %28 = getelementptr inbounds nuw %struct._typeobject, ptr %27, i32 0, i32 1
  %29 = load ptr, ptr %28, align 8, !tbaa !284
  %30 = call ptr (ptr, ptr, ...) @PyErr_Format(ptr noundef %25, ptr noundef @.str.283, ptr noundef %29)
  store ptr null, ptr %4, align 8
  br label %31

31:                                               ; preds = %24, %19, %10
  %32 = load ptr, ptr %4, align 8
  ret ptr %32
}

; Function Attrs: alwaysinline nounwind uwtable
define internal void @Py_DECREF(ptr noundef %0) #9 {
  %2 = alloca ptr, align 8
  store ptr %0, ptr %2, align 8, !tbaa !4
  %3 = load ptr, ptr %2, align 8, !tbaa !4
  %4 = call i32 @_Py_IsImmortal(ptr noundef %3)
  %5 = icmp ne i32 %4, 0
  br i1 %5, label %6, label %7

6:                                                ; preds = %1
  br label %16

7:                                                ; preds = %1
  %8 = load ptr, ptr %2, align 8, !tbaa !4
  %9 = getelementptr inbounds nuw %struct._object, ptr %8, i32 0, i32 0
  %10 = getelementptr inbounds nuw %struct.anon.42, ptr %9, i32 0, i32 0
  %11 = load i32, ptr %10, align 8, !tbaa !191
  %12 = add i32 %11, -1
  store i32 %12, ptr %10, align 8, !tbaa !191
  %13 = icmp eq i32 %12, 0
  br i1 %13, label %14, label %16

14:                                               ; preds = %7
  %15 = load ptr, ptr %2, align 8, !tbaa !4
  call void @_Py_Dealloc(ptr noundef %15)
  br label %16

16:                                               ; preds = %6, %14, %7
  ret void
}

; Function Attrs: inlinehint nounwind uwtable
define internal i64 @PyTuple_GET_SIZE(ptr noundef %0) #2 {
  %2 = alloca ptr, align 8
  %3 = alloca ptr, align 8
  store ptr %0, ptr %2, align 8, !tbaa !4
  call void @llvm.lifetime.start.p0(i64 8, ptr %3) #12
  %4 = load ptr, ptr %2, align 8, !tbaa !4
  store ptr %4, ptr %3, align 8, !tbaa !180
  %5 = load ptr, ptr %3, align 8, !tbaa !180
  %6 = call i64 @Py_SIZE(ptr noundef %5)
  call void @llvm.lifetime.end.p0(i64 8, ptr %3) #12
  ret i64 %6
}

; Function Attrs: nounwind uwtable
define internal ptr @unicode_split(ptr noundef %0, ptr noundef %1, i64 noundef %2, ptr noundef %3) #0 {
  %5 = alloca ptr, align 8
  %6 = alloca ptr, align 8
  %7 = alloca ptr, align 8
  %8 = alloca i64, align 8
  %9 = alloca ptr, align 8
  %10 = alloca ptr, align 8
  %11 = alloca [2 x ptr], align 16
  %12 = alloca i64, align 8
  %13 = alloca ptr, align 8
  %14 = alloca i64, align 8
  %15 = alloca i64, align 8
  %16 = alloca ptr, align 8
  %17 = alloca i32, align 4
  store ptr %0, ptr %6, align 8, !tbaa !4
  store ptr %1, ptr %7, align 8, !tbaa !222
  store i64 %2, ptr %8, align 8, !tbaa !185
  store ptr %3, ptr %9, align 8, !tbaa !4
  call void @llvm.lifetime.start.p0(i64 8, ptr %10) #12
  store ptr null, ptr %10, align 8, !tbaa !4
  call void @llvm.lifetime.start.p0(i64 16, ptr %11) #12
  call void @llvm.lifetime.start.p0(i64 8, ptr %12) #12
  %18 = load i64, ptr %8, align 8, !tbaa !185
  %19 = load ptr, ptr %9, align 8, !tbaa !4
  %20 = icmp ne ptr %19, null
  br i1 %20, label %21, label %24

21:                                               ; preds = %4
  %22 = load ptr, ptr %9, align 8, !tbaa !4
  %23 = call i64 @PyTuple_GET_SIZE(ptr noundef %22)
  br label %25

24:                                               ; preds = %4
  br label %25

25:                                               ; preds = %24, %21
  %26 = phi i64 [ %23, %21 ], [ 0, %24 ]
  %27 = add i64 %18, %26
  %28 = sub i64 %27, 0
  store i64 %28, ptr %12, align 8, !tbaa !185
  call void @llvm.lifetime.start.p0(i64 8, ptr %13) #12
  store ptr @_Py_NoneStruct, ptr %13, align 8, !tbaa !4
  call void @llvm.lifetime.start.p0(i64 8, ptr %14) #12
  store i64 -1, ptr %14, align 8, !tbaa !185
  %29 = load ptr, ptr %9, align 8, !tbaa !4
  %30 = icmp eq ptr %29, null
  br i1 %30, label %31, label %42

31:                                               ; preds = %25
  %32 = load i64, ptr %8, align 8, !tbaa !185
  %33 = icmp sle i64 0, %32
  br i1 %33, label %34, label %42

34:                                               ; preds = %31
  %35 = load i64, ptr %8, align 8, !tbaa !185
  %36 = icmp sle i64 %35, 2
  br i1 %36, label %37, label %42

37:                                               ; preds = %34
  %38 = load ptr, ptr %7, align 8, !tbaa !222
  %39 = icmp ne ptr %38, null
  br i1 %39, label %40, label %42

40:                                               ; preds = %37
  %41 = load ptr, ptr %7, align 8, !tbaa !222
  br label %48

42:                                               ; preds = %37, %34, %31, %25
  %43 = load ptr, ptr %7, align 8, !tbaa !222
  %44 = load i64, ptr %8, align 8, !tbaa !185
  %45 = load ptr, ptr %9, align 8, !tbaa !4
  %46 = getelementptr inbounds [2 x ptr], ptr %11, i64 0, i64 0
  %47 = call ptr @_PyArg_UnpackKeywords(ptr noundef %43, i64 noundef %44, ptr noundef null, ptr noundef %45, ptr noundef @unicode_split._parser, i32 noundef 0, i32 noundef 2, i32 noundef 0, i32 noundef 0, ptr noundef %46)
  br label %48

48:                                               ; preds = %42, %40
  %49 = phi ptr [ %41, %40 ], [ %47, %42 ]
  store ptr %49, ptr %7, align 8, !tbaa !222
  %50 = load ptr, ptr %7, align 8, !tbaa !222
  %51 = icmp ne ptr %50, null
  br i1 %51, label %53, label %52

52:                                               ; preds = %48
  br label %99

53:                                               ; preds = %48
  %54 = load i64, ptr %12, align 8, !tbaa !185
  %55 = icmp ne i64 %54, 0
  br i1 %55, label %57, label %56

56:                                               ; preds = %53
  br label %94

57:                                               ; preds = %53
  %58 = load ptr, ptr %7, align 8, !tbaa !222
  %59 = getelementptr ptr, ptr %58, i64 0
  %60 = load ptr, ptr %59, align 8, !tbaa !4
  %61 = icmp ne ptr %60, null
  br i1 %61, label %62, label %71

62:                                               ; preds = %57
  %63 = load ptr, ptr %7, align 8, !tbaa !222
  %64 = getelementptr ptr, ptr %63, i64 0
  %65 = load ptr, ptr %64, align 8, !tbaa !4
  store ptr %65, ptr %13, align 8, !tbaa !4
  %66 = load i64, ptr %12, align 8, !tbaa !185
  %67 = add i64 %66, -1
  store i64 %67, ptr %12, align 8, !tbaa !185
  %68 = icmp ne i64 %67, 0
  br i1 %68, label %70, label %69

69:                                               ; preds = %62
  br label %94

70:                                               ; preds = %62
  br label %71

71:                                               ; preds = %70, %57
  call void @llvm.lifetime.start.p0(i64 8, ptr %15) #12
  store i64 -1, ptr %15, align 8, !tbaa !185
  call void @llvm.lifetime.start.p0(i64 8, ptr %16) #12
  %72 = load ptr, ptr %7, align 8, !tbaa !222
  %73 = getelementptr ptr, ptr %72, i64 1
  %74 = load ptr, ptr %73, align 8, !tbaa !4
  %75 = call ptr @_PyNumber_Index(ptr noundef %74)
  store ptr %75, ptr %16, align 8, !tbaa !4
  %76 = load ptr, ptr %16, align 8, !tbaa !4
  %77 = icmp ne ptr %76, null
  br i1 %77, label %78, label %82

78:                                               ; preds = %71
  %79 = load ptr, ptr %16, align 8, !tbaa !4
  %80 = call i64 @PyLong_AsSsize_t(ptr noundef %79)
  store i64 %80, ptr %15, align 8, !tbaa !185
  %81 = load ptr, ptr %16, align 8, !tbaa !4
  call void @Py_DECREF(ptr noundef %81)
  br label %82

82:                                               ; preds = %78, %71
  %83 = load i64, ptr %15, align 8, !tbaa !185
  %84 = icmp eq i64 %83, -1
  br i1 %84, label %85, label %89

85:                                               ; preds = %82
  %86 = call ptr @PyErr_Occurred()
  %87 = icmp ne ptr %86, null
  br i1 %87, label %88, label %89

88:                                               ; preds = %85
  store i32 2, ptr %17, align 4
  br label %91

89:                                               ; preds = %85, %82
  %90 = load i64, ptr %15, align 8, !tbaa !185
  store i64 %90, ptr %14, align 8, !tbaa !185
  store i32 0, ptr %17, align 4
  br label %91

91:                                               ; preds = %88, %89
  call void @llvm.lifetime.end.p0(i64 8, ptr %16) #12
  call void @llvm.lifetime.end.p0(i64 8, ptr %15) #12
  %92 = load i32, ptr %17, align 4
  switch i32 %92, label %101 [
    i32 0, label %93
    i32 2, label %99
  ]

93:                                               ; preds = %91
  br label %94

94:                                               ; preds = %93, %69, %56
  %95 = load ptr, ptr %6, align 8, !tbaa !4
  %96 = load ptr, ptr %13, align 8, !tbaa !4
  %97 = load i64, ptr %14, align 8, !tbaa !185
  %98 = call ptr @unicode_split_impl(ptr noundef %95, ptr noundef %96, i64 noundef %97)
  store ptr %98, ptr %10, align 8, !tbaa !4
  br label %99

99:                                               ; preds = %94, %91, %52
  %100 = load ptr, ptr %10, align 8, !tbaa !4
  store ptr %100, ptr %5, align 8
  store i32 1, ptr %17, align 4
  br label %101

101:                                              ; preds = %99, %91
  call void @llvm.lifetime.end.p0(i64 8, ptr %14) #12
  call void @llvm.lifetime.end.p0(i64 8, ptr %13) #12
  call void @llvm.lifetime.end.p0(i64 8, ptr %12) #12
  call void @llvm.lifetime.end.p0(i64 16, ptr %11) #12
  call void @llvm.lifetime.end.p0(i64 8, ptr %10) #12
  %102 = load ptr, ptr %5, align 8
  ret ptr %102
}