; Function Attrs: nounwind uwtable
define internal ptr @unicode_split(ptr noundef %0, ptr noundef %1, i64 noundef %2, ptr noundef %3) #0 {
  %5 = alloca [2 x ptr], align 16
  call void @llvm.lifetime.start.p0(i64 16, ptr nonnull %5) #41
  %.not = icmp eq ptr %3, null
  br i1 %.not, label %8, label %.thread

.thread:                                          ; preds = %4
  %6 = getelementptr i8, ptr %3, i64 16
  %.val = load i64, ptr %6, align 8, !tbaa !268
  %7 = add i64 %.val, %2
  br label %11

8:                                                ; preds = %4
  %9 = icmp ult i64 %2, 3
  %10 = icmp ne ptr %1, null
  %or.cond5 = and i1 %10, %9
  br i1 %or.cond5, label %.thread54, label %11

11:                                               ; preds = %8, %.thread
  %12 = phi i64 [ %7, %.thread ], [ %2, %8 ]
  %13 = call ptr @_PyArg_UnpackKeywords(ptr noundef %1, i64 noundef %2, ptr noundef null, ptr noundef %3, ptr noundef nonnull @unicode_split._parser, i32 noundef 0, i32 noundef 2, i32 noundef 0, i32 noundef 0, ptr noundef nonnull %5) #41
  %.not44 = icmp eq ptr %13, null
  br i1 %.not44, label %unicode_split_impl.exit, label %.thread54

.thread54:                                        ; preds = %8, %11
  %14 = phi ptr [ %13, %11 ], [ %1, %8 ]
  %15 = phi i64 [ %12, %11 ], [ %2, %8 ]
  %.not45 = icmp eq i64 %15, 0
  br i1 %.not45, label %.thread63, label %16

16:                                               ; preds = %.thread54
  %17 = load ptr, ptr %14, align 8, !tbaa !183
  %.not46 = icmp eq ptr %17, null
  br i1 %.not46, label %19, label %18

18:                                               ; preds = %16
  %.not47 = icmp eq i64 %15, 1
  br i1 %.not47, label %.thread59, label %19

19:                                               ; preds = %18, %16
  %.136 = phi ptr [ %17, %18 ], [ @_Py_NoneStruct, %16 ]
  %20 = getelementptr i8, ptr %14, i64 8
  %21 = load ptr, ptr %20, align 8, !tbaa !183
  %22 = call ptr @_PyNumber_Index(ptr noundef %21) #41
  %.not48 = icmp eq ptr %22, null
  br i1 %.not48, label %Py_DECREF.exit.thread, label %23

23:                                               ; preds = %19
  %24 = call i64 @PyLong_AsSsize_t(ptr noundef nonnull %22) #41
  %25 = load i32, ptr %22, align 8, !tbaa !195
  %.not.i = icmp sgt i32 %25, -1
  br i1 %.not.i, label %26, label %Py_DECREF.exit

26:                                               ; preds = %23
  %27 = add nsw i32 %25, -1
  store i32 %27, ptr %22, align 8, !tbaa !195
  %28 = icmp eq i32 %27, 0
  br i1 %28, label %29, label %Py_DECREF.exit

29:                                               ; preds = %26
  call void @_Py_Dealloc(ptr noundef nonnull %22) #41
  br label %Py_DECREF.exit

Py_DECREF.exit:                                   ; preds = %29, %26, %23
  %30 = icmp eq i64 %24, -1
  br i1 %30, label %Py_DECREF.exit.thread, label %.thread59

Py_DECREF.exit.thread:                            ; preds = %19, %Py_DECREF.exit
  %31 = call ptr @PyErr_Occurred() #41
  %.not49 = icmp eq ptr %31, null
  br i1 %.not49, label %.thread59, label %unicode_split_impl.exit

.thread59:                                        ; preds = %Py_DECREF.exit.thread, %Py_DECREF.exit, %18
  %.035 = phi ptr [ %17, %18 ], [ %.136, %Py_DECREF.exit ], [ %.136, %Py_DECREF.exit.thread ]
  %.034 = phi i64 [ -1, %18 ], [ %24, %Py_DECREF.exit ], [ -1, %Py_DECREF.exit.thread ]
  %32 = icmp eq ptr %.035, @_Py_NoneStruct
  br i1 %32, label %.thread63, label %34

.thread63:                                        ; preds = %.thread54, %.thread59
  %.03466 = phi i64 [ %.034, %.thread59 ], [ -1, %.thread54 ]
  %33 = call fastcc ptr @split(ptr noundef %0, ptr noundef null, i64 noundef %.03466)
  br label %unicode_split_impl.exit

34:                                               ; preds = %.thread59
  %35 = getelementptr i8, ptr %.035, i64 8
  %.val9.i = load ptr, ptr %35, align 8, !tbaa !187
  %36 = getelementptr i8, ptr %.val9.i, i64 168
  %.val10.i = load i64, ptr %36, align 8, !tbaa !188
  %37 = and i64 %.val10.i, 268435456
  %.not.i51 = icmp eq i64 %37, 0
  br i1 %.not.i51, label %40, label %38

38:                                               ; preds = %34
  %39 = call fastcc ptr @split(ptr noundef %0, ptr noundef %.035, i64 noundef %.034)
  br label %unicode_split_impl.exit

40:                                               ; preds = %34
  %41 = load ptr, ptr @PyExc_TypeError, align 8, !tbaa !183
  %42 = getelementptr inbounds nuw i8, ptr %.val9.i, i64 24
  %43 = load ptr, ptr %42, align 8, !tbaa !267
  %44 = call ptr (ptr, ptr, ...) @PyErr_Format(ptr noundef %41, ptr noundef nonnull @.str.283, ptr noundef %43) #41
  br label %unicode_split_impl.exit

unicode_split_impl.exit:                          ; preds = %40, %38, %.thread63, %Py_DECREF.exit.thread, %11
  %.037 = phi ptr [ null, %11 ], [ null, %Py_DECREF.exit.thread ], [ %33, %.thread63 ], [ %39, %38 ], [ null, %40 ]
  call void @llvm.lifetime.end.p0(i64 16, ptr nonnull %5) #41
  ret ptr %.037
}